target datalayout = "e-m:e-p270:32:32-p271:32:32-p272:64:64-i64:64-i128:128-f80:128-n8:16:32:64-S128"
target triple = "x86_64-pc-linux-gnu"

; Function Attrs: nounwind uwtable
define hidden i64 @uv__recvmsg(i32 noundef %0, ptr noundef %1, i32 noundef %2) #0 {
  %4 = alloca i64, align 8
  %5 = alloca i32, align 4
  %6 = alloca ptr, align 8
  %7 = alloca i32, align 4
  %8 = alloca i64, align 8
  %9 = alloca i32, align 4
  store i32 %0, ptr %5, align 4
  store ptr %1, ptr %6, align 8
  store i32 %2, ptr %7, align 4
  call void @llvm.lifetime.start.p0(i64 8, ptr %8) #11
  %10 = load i32, ptr %5, align 4
  %11 = load ptr, ptr %6, align 8
  %12 = load i32, ptr %7, align 4
  %13 = or i32 %12, 1073741824
  %14 = call i64 @recvmsg(i32 noundef %10, ptr noundef %11, i32 noundef %13)
  store i64 %14, ptr %8, align 8
  %15 = load i64, ptr %8, align 8
  %16 = icmp eq i64 %15, -1
  br i1 %16, label %17, label %22

17:                                               ; preds = %3
  %18 = call ptr @__errno_location() #12
  %19 = load i32, ptr %18, align 4
  %20 = sub nsw i32 0, %19
  %21 = sext i32 %20 to i64
  store i64 %21, ptr %4, align 8
  store i32 1, ptr %9, align 4
  br label %24

22:                                               ; preds = %3
  %23 = load i64, ptr %8, align 8
  store i64 %23, ptr %4, align 8
  store i32 1, ptr %9, align 4
  br label %24

24:                                               ; preds = %22, %17
  call void @llvm.lifetime.end.p0(i64 8, ptr %8) #11
  %25 = load i64, ptr %4, align 8
  ret i64 %25
}