; Function Attrs: nounwind uwtable
define hidden i64 @uv__recvmsg(i32 noundef %0, ptr noundef %1, i32 noundef %2) local_unnamed_addr #0 {
  %4 = or i32 %2, 1073741824
  %5 = tail call i64 @recvmsg(i32 noundef %0, ptr noundef %1, i32 noundef %4) #23
  %6 = icmp eq i64 %5, -1
  br i1 %6, label %7, label %12

7:                                                ; preds = %3
  %8 = tail call ptr @__errno_location() #24
  %9 = load i32, ptr %8, align 4
  %10 = sub nsw i32 0, %9
  %11 = sext i32 %10 to i64
  br label %12

12:                                               ; preds = %3, %7
  %.0 = phi i64 [ %11, %7 ], [ %5, %3 ]
  ret i64 %.0
}